; Function Attrs: nounwind uwtable
define i32 @pmix_bfrops_base_pack_ptr(ptr noundef %0, ptr noundef %1, ptr noundef readnone captures(none) %2, i32 noundef %3, i16 noundef zeroext %4) local_unnamed_addr #0 {
  %6 = alloca i8, align 1
  call void @llvm.lifetime.start.p0(i64 1, ptr nonnull %6) #8
  store i8 1, ptr %6, align 1, !tbaa !36
  %7 = getelementptr inbounds nuw i8, ptr %0, i64 128
  %8 = load i32, ptr %7, align 8, !tbaa !15
  %.not.i = icmp sgt i32 %8, 12
  br i1 %.not.i, label %pmix_pointer_array_get_item.exit, label %pmix_pointer_array_get_item.exit.thread, !prof !18

pmix_pointer_array_get_item.exit:                 ; preds = %5
  %9 = getelementptr inbounds nuw i8, ptr %0, i64 152
  %10 = load ptr, ptr %9, align 8, !tbaa !19
  %11 = getelementptr inbounds nuw i8, ptr %10, i64 96
  %12 = load ptr, ptr %11, align 8, !tbaa !20
  %13 = icmp eq ptr %12, null
  br i1 %13, label %pmix_pointer_array_get_item.exit.thread, label %14

14:                                               ; preds = %pmix_pointer_array_get_item.exit
  %15 = getelementptr inbounds nuw i8, ptr %12, i64 136
  %16 = load ptr, ptr %15, align 8, !tbaa !21
  %17 = call i32 %16(ptr noundef nonnull %0, ptr noundef %1, ptr noundef nonnull %6, i32 noundef 1, i16 noundef zeroext 12) #8
  br label %pmix_pointer_array_get_item.exit.thread

pmix_pointer_array_get_item.exit.thread:          ; preds = %5, %pmix_pointer_array_get_item.exit, %14
  %.0 = phi i32 [ %17, %14 ], [ -16, %pmix_pointer_array_get_item.exit ], [ -16, %5 ]
  call void @llvm.lifetime.end.p0(i64 1, ptr nonnull %6) #8
  ret i32 %.0
}